target datalayout = "e-m:e-p270:32:32-p271:32:32-p272:64:64-i64:64-i128:128-f80:128-n8:16:32:64-S128"
target triple = "x86_64-unknown-linux-gnu"

%struct.BlockDriverState = type { i32, i8, i8, i8, i8, i8, ptr, ptr, ptr, %struct.anon.0, i8, [4096 x i8], [4096 x i8], [4096 x i8], [16 x i8], ptr, [4096 x i8], %struct.BlockLimits, i32, i32, i32, i32, [32 x i8], %union.anon, %union.anon.1, %union.anon.2, i32, [16 x %struct.anon.3], ptr, %struct.anon.4, ptr, ptr, %struct.anon.5, ptr, ptr, i32, ptr, i64, i64, %struct.QemuMutex, %struct.anon.6, %struct.Stat64, i32, i32, i32, i32, i32, i32, %struct.QemuMutex, %struct.anon.7, %struct.CoQueue, i8, i32, i8, %struct.CoMutex, ptr, ptr }
%struct.anon.0 = type { ptr }
%struct.BlockLimits = type { i32, i64, i32, i64, i32, i32, i32, i64, i32, i64, i64, i32, i8, i32, i32, i32, i32, i32, i32, i32 }
%union.anon = type { %struct.QTailQLink }
%struct.QTailQLink = type { ptr, ptr }
%union.anon.1 = type { %struct.QTailQLink }
%union.anon.2 = type { %struct.QTailQLink }
%struct.anon.3 = type { ptr }
%struct.anon.4 = type { ptr }
%struct.anon.5 = type { ptr }
%struct.anon.6 = type { ptr }
%struct.Stat64 = type { i64 }
%struct.QemuMutex = type { %union.pthread_mutex_t, i8 }
%union.pthread_mutex_t = type { %struct.__pthread_mutex_s }
%struct.__pthread_mutex_s = type { i32, i32, i32, i32, i32, i16, i16, %struct.__pthread_internal_list }
%struct.__pthread_internal_list = type { ptr, ptr }
%struct.anon.7 = type { ptr }
%struct.CoQueue = type { %struct.anon.8 }
%struct.anon.8 = type { ptr, ptr }
%struct.CoMutex = type { i32, ptr, %struct.anon.9, %struct.anon.9, i32, i32, ptr }
%struct.anon.9 = type { ptr }
%struct.BDRVCloopState = type { %struct.CoMutex, i32, i32, ptr, i32, i32, ptr, ptr, %struct.z_stream_s }
%struct.z_stream_s = type { ptr, i32, i64, ptr, i32, i64, ptr, ptr, ptr, ptr, ptr, i32, i64, i64 }

@.str.2 = private unnamed_addr constant [22 x i8] c"../qemu/block/cloop.c\00", align 1
@.str.16 = private unnamed_addr constant [42 x i8] c"QEMU_IS_ALIGNED(offset, BDRV_SECTOR_SIZE)\00", align 1
@__PRETTY_FUNCTION__.cloop_co_preadv = private unnamed_addr constant [92 x i8] c"int cloop_co_preadv(BlockDriverState *, int64_t, int64_t, QEMUIOVector *, BdrvRequestFlags)\00", align 1
@.str.17 = private unnamed_addr constant [41 x i8] c"QEMU_IS_ALIGNED(bytes, BDRV_SECTOR_SIZE)\00", align 1

; Function Attrs: nounwind sspstrong uwtable
define internal i32 @cloop_co_preadv(ptr noundef %bs, i64 noundef %offset, i64 noundef %bytes, ptr noundef %qiov, i32 noundef %flags) #0 {
entry:
  %bs.addr = alloca ptr, align 8
  %offset.addr = alloca i64, align 8
  %bytes.addr = alloca i64, align 8
  %qiov.addr = alloca ptr, align 8
  %flags.addr = alloca i32, align 4
  %s = alloca ptr, align 8
  %sector_num = alloca i64, align 8
  %nb_sectors = alloca i32, align 4
  %ret = alloca i32, align 4
  %i = alloca i32, align 4
  %data = alloca ptr, align 8
  %sector_offset_in_block = alloca i32, align 4
  %block_num = alloca i32, align 4
  store ptr %bs, ptr %bs.addr, align 8
  store i64 %offset, ptr %offset.addr, align 8
  store i64 %bytes, ptr %bytes.addr, align 8
  store ptr %qiov, ptr %qiov.addr, align 8
  store i32 %flags, ptr %flags.addr, align 4
  %0 = load ptr, ptr %bs.addr, align 8
  %opaque = getelementptr inbounds %struct.BlockDriverState, ptr %0, i32 0, i32 7
  %1 = load ptr, ptr %opaque, align 8
  store ptr %1, ptr %s, align 8
  %2 = load i64, ptr %offset.addr, align 8
  %shr = ashr i64 %2, 9
  store i64 %shr, ptr %sector_num, align 8
  %3 = load i64, ptr %bytes.addr, align 8
  %shr1 = ashr i64 %3, 9
  %conv = trunc i64 %shr1 to i32
  store i32 %conv, ptr %nb_sectors, align 4
  %4 = load i64, ptr %offset.addr, align 8
  %rem = urem i64 %4, 512
  %cmp = icmp eq i64 %rem, 0
  br i1 %cmp, label %if.then, label %if.else

if.then:                                          ; preds = %entry
  br label %if.end

if.else:                                          ; preds = %entry
  call void @__assert_fail(ptr noundef @.str.16, ptr noundef @.str.2, i32 noundef 263, ptr noundef @__PRETTY_FUNCTION__.cloop_co_preadv) #6
  unreachable

if.end:                                           ; preds = %if.then
  %5 = load i64, ptr %bytes.addr, align 8
  %rem3 = urem i64 %5, 512
  %cmp4 = icmp eq i64 %rem3, 0
  br i1 %cmp4, label %if.then6, label %if.else7

if.then6:                                         ; preds = %if.end
  br label %if.end8

if.else7:                                         ; preds = %if.end
  call void @__assert_fail(ptr noundef @.str.17, ptr noundef @.str.2, i32 noundef 264, ptr noundef @__PRETTY_FUNCTION__.cloop_co_preadv) #6
  unreachable

if.end8:                                          ; preds = %if.then6
  %6 = load ptr, ptr %s, align 8
  %lock = getelementptr inbounds %struct.BDRVCloopState, ptr %6, i32 0, i32 0
  call void @qemu_co_mutex_lock(ptr noundef %lock)
  store i32 0, ptr %i, align 4
  br label %for.cond

for.cond:                                         ; preds = %for.inc, %if.end8
  %7 = load i32, ptr %i, align 4
  %8 = load i32, ptr %nb_sectors, align 4
  %cmp9 = icmp slt i32 %7, %8
  br i1 %cmp9, label %for.body, label %for.end

for.body:                                         ; preds = %for.cond
  %9 = load i64, ptr %sector_num, align 8
  %10 = load i32, ptr %i, align 4
  %conv11 = sext i32 %10 to i64
  %add = add i64 %9, %conv11
  %11 = load ptr, ptr %s, align 8
  %sectors_per_block = getelementptr inbounds %struct.BDRVCloopState, ptr %11, i32 0, i32 4
  %12 = load i32, ptr %sectors_per_block, align 8
  %conv12 = zext i32 %12 to i64
  %rem13 = urem i64 %add, %conv12
  %conv14 = trunc i64 %rem13 to i32
  store i32 %conv14, ptr %sector_offset_in_block, align 4
  %13 = load i64, ptr %sector_num, align 8
  %14 = load i32, ptr %i, align 4
  %conv15 = sext i32 %14 to i64
  %add16 = add i64 %13, %conv15
  %15 = load ptr, ptr %s, align 8
  %sectors_per_block17 = getelementptr inbounds %struct.BDRVCloopState, ptr %15, i32 0, i32 4
  %16 = load i32, ptr %sectors_per_block17, align 8
  %conv18 = zext i32 %16 to i64
  %div = udiv i64 %add16, %conv18
  %conv19 = trunc i64 %div to i32
  store i32 %conv19, ptr %block_num, align 4
  %17 = load ptr, ptr %bs.addr, align 8
  %18 = load i32, ptr %block_num, align 4
  %call = call i32 @cloop_read_block(ptr noundef %17, i32 noundef %18)
  %cmp20 = icmp ne i32 %call, 0
  br i1 %cmp20, label %if.then22, label %if.end23

if.then22:                                        ; preds = %for.body
  store i32 -5, ptr %ret, align 4
  br label %fail

if.end23:                                         ; preds = %for.body
  %19 = load ptr, ptr %s, align 8
  %uncompressed_block = getelementptr inbounds %struct.BDRVCloopState, ptr %19, i32 0, i32 7
  %20 = load ptr, ptr %uncompressed_block, align 8
  %21 = load i32, ptr %sector_offset_in_block, align 4
  %mul = mul i32 %21, 512
  %idx.ext = zext i32 %mul to i64
  %add.ptr = getelementptr i8, ptr %20, i64 %idx.ext
  store ptr %add.ptr, ptr %data, align 8
  %22 = load ptr, ptr %qiov.addr, align 8
  %23 = load i32, ptr %i, align 4
  %mul24 = mul i32 %23, 512
  %conv25 = sext i32 %mul24 to i64
  %24 = load ptr, ptr %data, align 8
  %call26 = call i64 @qemu_iovec_from_buf(ptr noundef %22, i64 noundef %conv25, ptr noundef %24, i64 noundef 512)
  br label %for.inc

for.inc:                                          ; preds = %if.end23
  %25 = load i32, ptr %i, align 4
  %inc = add i32 %25, 1
  store i32 %inc, ptr %i, align 4
  br label %for.cond, !llvm.loop !7

for.end:                                          ; preds = %for.cond
  store i32 0, ptr %ret, align 4
  br label %fail

fail:                                             ; preds = %for.end, %if.then22
  %26 = load ptr, ptr %s, align 8
  %lock27 = getelementptr inbounds %struct.BDRVCloopState, ptr %26, i32 0, i32 0
  call void @qemu_co_mutex_unlock(ptr noundef %lock27)
  %27 = load i32, ptr %ret, align 4
  ret i32 %27
}