; Function Attrs: nounwind sspstrong uwtable
define internal range(i32 -5, 1) i32 @cloop_co_preadv(ptr noundef readonly captures(none) %bs, i64 noundef %offset, i64 noundef %bytes, ptr noundef %qiov, i32 %flags) #0 {
entry:
  %opaque = getelementptr inbounds nuw i8, ptr %bs, i64 24
  %0 = load ptr, ptr %opaque, align 8
  %shr = ashr i64 %offset, 9
  %shr1 = lshr i64 %bytes, 9
  %conv = trunc i64 %shr1 to i32
  %rem = and i64 %offset, 511
  %cmp = icmp eq i64 %rem, 0
  br i1 %cmp, label %if.end, label %if.else

if.else:                                          ; preds = %entry
  tail call void @__assert_fail(ptr noundef nonnull @.str.16, ptr noundef nonnull @.str.2, i32 noundef 263, ptr noundef nonnull @__PRETTY_FUNCTION__.cloop_co_preadv) #11
  unreachable

if.end:                                           ; preds = %entry
  %rem3 = and i64 %bytes, 511
  %cmp4 = icmp eq i64 %rem3, 0
  br i1 %cmp4, label %if.end8, label %if.else7

if.else7:                                         ; preds = %if.end
  tail call void @__assert_fail(ptr noundef nonnull @.str.17, ptr noundef nonnull @.str.2, i32 noundef 264, ptr noundef nonnull @__PRETTY_FUNCTION__.cloop_co_preadv) #11
  unreachable

if.end8:                                          ; preds = %if.end
  tail call void @qemu_co_mutex_lock(ptr noundef %0) #10
  %cmp913 = icmp sgt i32 %conv, 0
  br i1 %cmp913, label %for.body.lr.ph, label %fail

for.body.lr.ph:                                   ; preds = %if.end8
  %sectors_per_block = getelementptr inbounds nuw i8, ptr %0, i64 64
  %uncompressed_block = getelementptr inbounds nuw i8, ptr %0, i64 80
  %wide.trip.count = and i64 %shr1, 2147483647
  br label %for.body

for.body:                                         ; preds = %for.body.lr.ph, %if.end23
  %indvars.iv = phi i64 [ 0, %for.body.lr.ph ], [ %indvars.iv.next, %if.end23 ]
  %add = add nsw i64 %shr, %indvars.iv
  %1 = load i32, ptr %sectors_per_block, align 8
  %conv12 = zext i32 %1 to i64
  %div = udiv i64 %add, %conv12
  %rem13 = urem i64 %add, %conv12
  %conv19 = trunc i64 %div to i32
  %call = tail call i32 @cloop_read_block(ptr noundef %bs, i32 noundef %conv19)
  %cmp20.not = icmp eq i32 %call, 0
  br i1 %cmp20.not, label %if.end23, label %fail

if.end23:                                         ; preds = %for.body
  %2 = load ptr, ptr %uncompressed_block, align 8
  %mul = shl nuw nsw i64 %rem13, 9
  %idx.ext = and i64 %mul, 4294966784
  %add.ptr = getelementptr i8, ptr %2, i64 %idx.ext
  %3 = trunc nuw nsw i64 %indvars.iv to i32
  %mul24 = shl i32 %3, 9
  %conv25 = sext i32 %mul24 to i64
  %call26 = tail call i64 @qemu_iovec_from_buf(ptr noundef %qiov, i64 noundef %conv25, ptr noundef %add.ptr, i64 noundef 512) #10
  %indvars.iv.next = add nuw nsw i64 %indvars.iv, 1
  %exitcond.not = icmp eq i64 %indvars.iv.next, %wide.trip.count
  br i1 %exitcond.not, label %fail, label %for.body, !llvm.loop !7

fail:                                             ; preds = %for.body, %if.end23, %if.end8
  %ret.0 = phi i32 [ 0, %if.end8 ], [ 0, %if.end23 ], [ -5, %for.body ]
  tail call void @qemu_co_mutex_unlock(ptr noundef %0) #10
  ret i32 %ret.0
}